target datalayout = "e-m:e-p270:32:32-p271:32:32-p272:64:64-i64:64-i128:128-f80:128-n8:16:32:64-S128"
target triple = "x86_64-pc-linux-gnu"

%"class.zxing::Ref" = type { ptr }
%"class.zxing::FastWindowBinarizer" = type { %"class.zxing::GlobalHistogramBinarizer.base", %"class.zxing::Ref.0", %"class.zxing::Ref.2", ptr, ptr, ptr, ptr, ptr }
%"class.zxing::GlobalHistogramBinarizer.base" = type <{ %"class.zxing::Binarizer", %"class.zxing::ArrayRef", %"class.zxing::ArrayRef.1", i8 }>
%"class.zxing::Binarizer" = type { %"class.zxing::Counted.base", %"class.zxing::Ref", i8, i8, i32, i32, i32, i32, %"class.zxing::Ref.0", %"class.zxing::Ref.0", %"class.zxing::Ref.0" }
%"class.zxing::Counted.base" = type <{ ptr, i32 }>
%"class.zxing::ArrayRef" = type { %"class.zxing::Counted.base", ptr }
%"class.zxing::ArrayRef.1" = type { %"class.zxing::Counted.base", ptr }
%"class.zxing::Ref.0" = type { ptr }
%"class.zxing::Ref.2" = type { ptr }

; Function Attrs: mustprogress nounwind uwtable
define hidden void @_ZN5zxing19FastWindowBinarizer10cumulativeEPiS1_ii(ptr noundef nonnull align 8 dereferenceable(184) %0, ptr noundef %1, ptr noundef %2, i32 noundef %3, i32 noundef %4) #2 align 2 {
  %6 = alloca ptr, align 8
  %7 = alloca ptr, align 8
  %8 = alloca ptr, align 8
  %9 = alloca i32, align 4
  %10 = alloca i32, align 4
  %11 = alloca i32, align 4
  %12 = alloca i32, align 4
  %13 = alloca i32, align 4
  %14 = alloca i32, align 4
  %15 = alloca i32, align 4
  %16 = alloca ptr, align 8
  %17 = alloca ptr, align 8
  %18 = alloca i32, align 4
  %19 = alloca i32, align 4
  %20 = alloca i32, align 4
  %21 = alloca i32, align 4
  %22 = alloca i32, align 4
  store ptr %0, ptr %6, align 8, !tbaa !3
  store ptr %1, ptr %7, align 8, !tbaa !60
  store ptr %2, ptr %8, align 8, !tbaa !60
  store i32 %3, ptr %9, align 4, !tbaa !22
  store i32 %4, ptr %10, align 4, !tbaa !22
  %23 = load ptr, ptr %6, align 8
  call void @llvm.lifetime.start.p0(i64 4, ptr %11) #9
  %24 = load i32, ptr %10, align 4, !tbaa !22
  store i32 %24, ptr %11, align 4, !tbaa !22
  call void @llvm.lifetime.start.p0(i64 4, ptr %12) #9
  %25 = load i32, ptr %9, align 4, !tbaa !22
  store i32 %25, ptr %12, align 4, !tbaa !22
  call void @llvm.lifetime.start.p0(i64 4, ptr %13) #9
  %26 = load i32, ptr %9, align 4, !tbaa !22
  %27 = add nsw i32 %26, 1
  store i32 %27, ptr %13, align 4, !tbaa !22
  call void @llvm.lifetime.start.p0(i64 4, ptr %14) #9
  store i32 0, ptr %14, align 4, !tbaa !22
  br label %28

28:                                               ; preds = %73, %5
  %29 = load i32, ptr %14, align 4, !tbaa !22
  %30 = load i32, ptr %11, align 4, !tbaa !22
  %31 = icmp slt i32 %29, %30
  br i1 %31, label %33, label %32

32:                                               ; preds = %28
  store i32 2, ptr %15, align 4
  call void @llvm.lifetime.end.p0(i64 4, ptr %14) #9
  br label %76

33:                                               ; preds = %28
  call void @llvm.lifetime.start.p0(i64 8, ptr %16) #9
  %34 = getelementptr inbounds nuw %"class.zxing::FastWindowBinarizer", ptr %23, i32 0, i32 6
  %35 = load ptr, ptr %34, align 8, !tbaa !35
  %36 = load i32, ptr %14, align 4, !tbaa !22
  %37 = load i32, ptr %13, align 4, !tbaa !22
  %38 = mul nsw i32 %36, %37
  %39 = sext i32 %38 to i64
  %40 = getelementptr inbounds i32, ptr %35, i64 %39
  store ptr %40, ptr %16, align 8, !tbaa !60
  call void @llvm.lifetime.start.p0(i64 8, ptr %17) #9
  %41 = load ptr, ptr %7, align 8, !tbaa !60
  %42 = load i32, ptr %14, align 4, !tbaa !22
  %43 = load i32, ptr %12, align 4, !tbaa !22
  %44 = mul nsw i32 %42, %43
  %45 = sext i32 %44 to i64
  %46 = getelementptr inbounds i32, ptr %41, i64 %45
  store ptr %46, ptr %17, align 8, !tbaa !60
  call void @llvm.lifetime.start.p0(i64 4, ptr %18) #9
  store i32 0, ptr %18, align 4, !tbaa !22
  %47 = load i32, ptr %18, align 4, !tbaa !22
  %48 = load ptr, ptr %16, align 8, !tbaa !60
  %49 = getelementptr inbounds i32, ptr %48, i64 0
  store i32 %47, ptr %49, align 4, !tbaa !22
  call void @llvm.lifetime.start.p0(i64 4, ptr %19) #9
  store i32 0, ptr %19, align 4, !tbaa !22
  br label %50

50:                                               ; preds = %69, %33
  %51 = load i32, ptr %19, align 4, !tbaa !22
  %52 = load i32, ptr %12, align 4, !tbaa !22
  %53 = icmp slt i32 %51, %52
  br i1 %53, label %55, label %54

54:                                               ; preds = %50
  store i32 5, ptr %15, align 4
  call void @llvm.lifetime.end.p0(i64 4, ptr %19) #9
  br label %72

55:                                               ; preds = %50
  %56 = load ptr, ptr %17, align 8, !tbaa !60
  %57 = load i32, ptr %19, align 4, !tbaa !22
  %58 = sext i32 %57 to i64
  %59 = getelementptr inbounds i32, ptr %56, i64 %58
  %60 = load i32, ptr %59, align 4, !tbaa !22
  %61 = load i32, ptr %18, align 4, !tbaa !22
  %62 = add nsw i32 %61, %60
  store i32 %62, ptr %18, align 4, !tbaa !22
  %63 = load i32, ptr %18, align 4, !tbaa !22
  %64 = load ptr, ptr %16, align 8, !tbaa !60
  %65 = load i32, ptr %19, align 4, !tbaa !22
  %66 = add nsw i32 %65, 1
  %67 = sext i32 %66 to i64
  %68 = getelementptr inbounds i32, ptr %64, i64 %67
  store i32 %63, ptr %68, align 4, !tbaa !22
  br label %69

69:                                               ; preds = %55
  %70 = load i32, ptr %19, align 4, !tbaa !22
  %71 = add nsw i32 %70, 1
  store i32 %71, ptr %19, align 4, !tbaa !22
  br label %50, !llvm.loop !66

72:                                               ; preds = %54
  call void @llvm.lifetime.end.p0(i64 4, ptr %18) #9
  call void @llvm.lifetime.end.p0(i64 8, ptr %17) #9
  call void @llvm.lifetime.end.p0(i64 8, ptr %16) #9
  br label %73

73:                                               ; preds = %72
  %74 = load i32, ptr %14, align 4, !tbaa !22
  %75 = add nsw i32 %74, 1
  store i32 %75, ptr %14, align 4, !tbaa !22
  br label %28, !llvm.loop !67

76:                                               ; preds = %32
  call void @llvm.lifetime.start.p0(i64 4, ptr %20) #9
  store i32 0, ptr %20, align 4, !tbaa !22
  br label %77

77:                                               ; preds = %119, %76
  %78 = load i32, ptr %20, align 4, !tbaa !22
  %79 = load i32, ptr %12, align 4, !tbaa !22
  %80 = icmp sle i32 %78, %79
  br i1 %80, label %82, label %81

81:                                               ; preds = %77
  store i32 8, ptr %15, align 4
  call void @llvm.lifetime.end.p0(i64 4, ptr %20) #9
  br label %122

82:                                               ; preds = %77
  %83 = load ptr, ptr %8, align 8, !tbaa !60
  %84 = load i32, ptr %20, align 4, !tbaa !22
  %85 = sext i32 %84 to i64
  %86 = getelementptr inbounds i32, ptr %83, i64 %85
  store i32 0, ptr %86, align 4, !tbaa !22
  call void @llvm.lifetime.start.p0(i64 4, ptr %21) #9
  store i32 0, ptr %21, align 4, !tbaa !22
  call void @llvm.lifetime.start.p0(i64 4, ptr %22) #9
  store i32 0, ptr %22, align 4, !tbaa !22
  br label %87

87:                                               ; preds = %115, %82
  %88 = load i32, ptr %22, align 4, !tbaa !22
  %89 = load i32, ptr %11, align 4, !tbaa !22
  %90 = icmp slt i32 %88, %89
  br i1 %90, label %92, label %91

91:                                               ; preds = %87
  store i32 11, ptr %15, align 4
  call void @llvm.lifetime.end.p0(i64 4, ptr %22) #9
  br label %118

92:                                               ; preds = %87
  %93 = getelementptr inbounds nuw %"class.zxing::FastWindowBinarizer", ptr %23, i32 0, i32 6
  %94 = load ptr, ptr %93, align 8, !tbaa !35
  %95 = load i32, ptr %22, align 4, !tbaa !22
  %96 = load i32, ptr %13, align 4, !tbaa !22
  %97 = mul nsw i32 %95, %96
  %98 = load i32, ptr %20, align 4, !tbaa !22
  %99 = add nsw i32 %97, %98
  %100 = sext i32 %99 to i64
  %101 = getelementptr inbounds i32, ptr %94, i64 %100
  %102 = load i32, ptr %101, align 4, !tbaa !22
  %103 = load i32, ptr %21, align 4, !tbaa !22
  %104 = add nsw i32 %103, %102
  store i32 %104, ptr %21, align 4, !tbaa !22
  %105 = load i32, ptr %21, align 4, !tbaa !22
  %106 = load ptr, ptr %8, align 8, !tbaa !60
  %107 = load i32, ptr %22, align 4, !tbaa !22
  %108 = add nsw i32 %107, 1
  %109 = load i32, ptr %13, align 4, !tbaa !22
  %110 = mul nsw i32 %108, %109
  %111 = load i32, ptr %20, align 4, !tbaa !22
  %112 = add nsw i32 %110, %111
  %113 = sext i32 %112 to i64
  %114 = getelementptr inbounds i32, ptr %106, i64 %113
  store i32 %105, ptr %114, align 4, !tbaa !22
  br label %115

115:                                              ; preds = %92
  %116 = load i32, ptr %22, align 4, !tbaa !22
  %117 = add nsw i32 %116, 1
  store i32 %117, ptr %22, align 4, !tbaa !22
  br label %87, !llvm.loop !68

118:                                              ; preds = %91
  call void @llvm.lifetime.end.p0(i64 4, ptr %21) #9
  br label %119

119:                                              ; preds = %118
  %120 = load i32, ptr %20, align 4, !tbaa !22
  %121 = add nsw i32 %120, 1
  store i32 %121, ptr %20, align 4, !tbaa !22
  br label %77, !llvm.loop !69

122:                                              ; preds = %81
  call void @llvm.lifetime.end.p0(i64 4, ptr %13) #9
  call void @llvm.lifetime.end.p0(i64 4, ptr %12) #9
  call void @llvm.lifetime.end.p0(i64 4, ptr %11) #9
  ret void
}