; Function Attrs: mustprogress nofree norecurse nosync nounwind memory(readwrite, inaccessiblemem: none) uwtable
define hidden void @_ZN5zxing19FastWindowBinarizer10cumulativeEPiS1_ii(ptr noundef nonnull readonly align 8 captures(none) dereferenceable(184) %0, ptr noundef readonly captures(none) %1, ptr noundef writeonly captures(none) %2, i32 noundef %3, i32 noundef %4) local_unnamed_addr #8 align 2 {
  %6 = add i32 %3, 1
  %7 = icmp sgt i32 %4, 0
  br i1 %7, label %.lr.ph49, label %.preheader.thread

.lr.ph49:                                         ; preds = %5
  %8 = getelementptr inbounds nuw i8, ptr %0, i64 168
  %9 = load ptr, ptr %8, align 8, !tbaa !35
  %10 = icmp sgt i32 %3, 0
  br i1 %10, label %.lr.ph.us.preheader, label %.lr.ph49.split.preheader

.lr.ph49.split.preheader:                         ; preds = %.lr.ph49
  %11 = sext i32 %6 to i64
  %wide.trip.count = zext nneg i32 %4 to i64
  br label %.lr.ph49.split

.lr.ph.us.preheader:                              ; preds = %.lr.ph49
  %12 = zext i32 %6 to i64
  %13 = zext nneg i32 %3 to i64
  %wide.trip.count69 = zext nneg i32 %4 to i64
  br label %.lr.ph.us

.lr.ph.us:                                        ; preds = %.lr.ph.us.preheader, %._crit_edge.us
  %indvars.iv66 = phi i64 [ 0, %.lr.ph.us.preheader ], [ %indvars.iv.next67, %._crit_edge.us ]
  %14 = mul nuw nsw i64 %indvars.iv66, %12
  %15 = getelementptr inbounds nuw i32, ptr %9, i64 %14
  %16 = mul nuw nsw i64 %indvars.iv66, %13
  %17 = getelementptr inbounds nuw i32, ptr %1, i64 %16
  store i32 0, ptr %15, align 4, !tbaa !54
  br label %18

18:                                               ; preds = %.lr.ph.us, %18
  %indvars.iv61 = phi i64 [ 0, %.lr.ph.us ], [ %indvars.iv.next62, %18 ]
  %.04245.us = phi i32 [ 0, %.lr.ph.us ], [ %21, %18 ]
  %19 = getelementptr inbounds nuw i32, ptr %17, i64 %indvars.iv61
  %20 = load i32, ptr %19, align 4, !tbaa !54
  %21 = add nsw i32 %20, %.04245.us
  %indvars.iv.next62 = add nuw nsw i64 %indvars.iv61, 1
  %22 = getelementptr inbounds nuw i32, ptr %15, i64 %indvars.iv.next62
  store i32 %21, ptr %22, align 4, !tbaa !54
  %exitcond65.not = icmp eq i64 %indvars.iv.next62, %13
  br i1 %exitcond65.not, label %._crit_edge.us, label %18, !llvm.loop !57

._crit_edge.us:                                   ; preds = %18
  %indvars.iv.next67 = add nuw nsw i64 %indvars.iv66, 1
  %exitcond70.not = icmp eq i64 %indvars.iv.next67, %wide.trip.count69
  br i1 %exitcond70.not, label %.lr.ph.us56.preheader, label %.lr.ph.us, !llvm.loop !58

.preheader.thread85:                              ; preds = %.lr.ph49.split
  %.not5286 = icmp slt i32 %3, 0
  br i1 %.not5286, label %._crit_edge55, label %.lr.ph.us56.preheader

.preheader.thread:                                ; preds = %5
  %.not5284 = icmp slt i32 %3, 0
  br i1 %.not5284, label %._crit_edge55, label %.lr.ph54.split.preheader

.lr.ph54.split.preheader:                         ; preds = %.preheader.thread
  %23 = zext i32 %6 to i64
  %24 = shl nuw nsw i64 %23, 2
  tail call void @llvm.memset.p0.i64(ptr align 4 %2, i8 0, i64 %24, i1 false), !tbaa !54
  br label %._crit_edge55

.lr.ph.us56.preheader:                            ; preds = %._crit_edge.us, %.preheader.thread85
  %.in = getelementptr inbounds nuw i8, ptr %0, i64 168
  %25 = load ptr, ptr %.in, align 8
  %26 = zext i32 %6 to i64
  %wide.trip.count77 = zext nneg i32 %4 to i64
  br label %.lr.ph.us56

.lr.ph.us56:                                      ; preds = %.lr.ph.us56.preheader, %._crit_edge.us57
  %indvars.iv79 = phi i64 [ 0, %.lr.ph.us56.preheader ], [ %indvars.iv.next80, %._crit_edge.us57 ]
  %27 = getelementptr inbounds nuw i32, ptr %2, i64 %indvars.iv79
  store i32 0, ptr %27, align 4, !tbaa !54
  %invariant.gep = getelementptr inbounds nuw i32, ptr %25, i64 %indvars.iv79
  %invariant.gep88 = getelementptr inbounds nuw i32, ptr %2, i64 %indvars.iv79
  br label %28

28:                                               ; preds = %.lr.ph.us56, %28
  %indvars.iv74 = phi i64 [ 0, %.lr.ph.us56 ], [ %indvars.iv.next75, %28 ]
  %.03950.us = phi i32 [ 0, %.lr.ph.us56 ], [ %31, %28 ]
  %29 = mul nuw nsw i64 %indvars.iv74, %26
  %gep = getelementptr inbounds nuw i32, ptr %invariant.gep, i64 %29
  %30 = load i32, ptr %gep, align 4, !tbaa !54
  %31 = add nsw i32 %30, %.03950.us
  %indvars.iv.next75 = add nuw nsw i64 %indvars.iv74, 1
  %32 = mul nuw nsw i64 %indvars.iv.next75, %26
  %gep89 = getelementptr inbounds nuw i32, ptr %invariant.gep88, i64 %32
  store i32 %31, ptr %gep89, align 4, !tbaa !54
  %exitcond78.not = icmp eq i64 %indvars.iv.next75, %wide.trip.count77
  br i1 %exitcond78.not, label %._crit_edge.us57, label %28, !llvm.loop !59

._crit_edge.us57:                                 ; preds = %28
  %indvars.iv.next80 = add nuw nsw i64 %indvars.iv79, 1
  %exitcond83.not = icmp eq i64 %indvars.iv.next80, %26
  br i1 %exitcond83.not, label %._crit_edge55, label %.lr.ph.us56, !llvm.loop !60

.lr.ph49.split:                                   ; preds = %.lr.ph49.split.preheader, %.lr.ph49.split
  %indvars.iv = phi i64 [ 0, %.lr.ph49.split.preheader ], [ %indvars.iv.next, %.lr.ph49.split ]
  %33 = mul nsw i64 %indvars.iv, %11
  %34 = getelementptr inbounds i32, ptr %9, i64 %33
  store i32 0, ptr %34, align 4, !tbaa !54
  %indvars.iv.next = add nuw nsw i64 %indvars.iv, 1
  %exitcond.not = icmp eq i64 %indvars.iv.next, %wide.trip.count
  br i1 %exitcond.not, label %.preheader.thread85, label %.lr.ph49.split, !llvm.loop !58

._crit_edge55:                                    ; preds = %._crit_edge.us57, %.preheader.thread85, %.preheader.thread, %.lr.ph54.split.preheader
  ret void
}